Certificate:
    Data:
        Version: 3 (0x2)
        Serial Number: 2 (0x2)
    Signature Algorithm: sha256WithRSAEncryption
        Issuer: C=US, ST=Georgia, L=Atlanta, O=GATech, OU=MASTER, CN=CA/emailAddress=gatech@gatech.edu
        Validity
            Not Before: Nov 15 20:42:48 2015 GMT
            Not After : Nov 14 20:42:48 2016 GMT
        Subject: C=US, ST=Georgia, O=GATech, OU=MASTER, CN=Client/emailAddress=gatech@gatech.edu
        Subject Public Key Info:
            Public Key Algorithm: rsaEncryption
                Public-Key: (2048 bit)
                Modulus:
                    00:b8:cd:bd:3f:9a:e0:b7:e7:10:bf:fd:37:d8:1b:
                    d3:cd:14:c8:a4:be:4e:ec:77:0b:40:1e:bb:f8:30:
                    11:21:34:1d:58:cb:01:2e:01:75:c9:d5:cb:23:5d:
                    6c:f3:1f:05:5e:e8:35:97:bb:be:9c:7b:ad:3e:11:
                    af:20:fa:d6:77:94:90:41:2e:78:4e:00:51:8d:a4:
                    84:5d:f0:6e:05:00:7d:c6:db:2b:48:92:7b:6f:fe:
                    5f:1b:62:2a:11:99:06:95:28:43:e6:90:94:b8:0d:
                    c1:4d:de:43:a1:26:20:2d:be:65:e5:59:0b:b2:80:
                    46:ce:86:02:9a:54:dd:de:ee:9a:af:9b:93:ef:91:
                    b2:90:7b:db:a5:4e:96:d1:77:2b:de:18:a7:a6:7f:
                    71:ef:53:b9:09:7a:18:e1:59:d9:4c:35:7f:93:47:
                    35:68:b9:70:4a:07:47:21:05:84:e8:2c:bb:e8:c5:
                    98:1a:11:1d:c5:94:2b:87:7b:28:21:84:5e:61:c6:
                    ed:57:c8:09:66:25:60:cd:57:37:ca:6f:5d:c5:8f:
                    7c:5f:89:27:9b:ea:7b:df:65:16:c5:2b:fb:e1:12:
                    31:2e:40:7b:7c:51:e5:95:9a:c9:d1:f0:10:ab:20:
                    2a:c7:bb:1b:41:94:b3:08:3c:fd:a8:06:65:3c:5d:
                    ef:39
                Exponent: 65537 (0x10001)
        X509v3 extensions:
            X509v3 Basic Constraints: 
                CA:FALSE
            Netscape Comment: 
                OpenSSL Generated Certificate
            X509v3 Subject Key Identifier: 
                76:91:A4:50:99:CD:0B:26:9B:FF:4A:20:E4:12:AB:80:0A:13:90:98
            X509v3 Authority Key Identifier: 
                keyid:23:B8:0E:AC:DC:6E:4C:A5:B7:25:E4:3B:AC:BF:4F:1C:6F:ED:E8:44

    Signature Algorithm: sha256WithRSAEncryption
         3d:1b:28:d3:11:74:bc:f6:98:ff:40:a5:b5:06:b1:cf:cb:ec:
         90:54:62:bb:b1:70:e6:4b:68:2b:36:3b:67:b8:17:be:db:e5:
         92:e5:a8:5a:aa:42:f7:04:f8:0e:9d:31:8e:19:2c:79:df:24:
         05:c8:d4:1c:ac:62:c5:88:99:55:43:97:ad:ab:87:8c:48:fc:
         e6:ad:ee:3d:73:38:b9:a0:37:01:b1:ea:3c:f2:8d:79:34:85:
         77:04:60:f7:96:99:2c:8b:09:cf:a8:d6:96:a6:09:de:4d:00:
         84:b7:1c:c4:cb:c1:a5:62:6a:0a:e5:e3:a4:da:70:ce:9b:6d:
         37:58:44:42:ae:c3:4f:e3:67:f7:67:5b:e4:b3:03:38:cc:c8:
         50:36:af:76:bb:f1:ea:26:d7:a1:19:dc:dd:2f:be:88:91:d7:
         0b:64:64:e7:5c:0a:4b:b3:08:78:da:4f:fa:4b:51:44:6d:68:
         8a:af:13:59:f8:0b:f1:3d:5d:11:f5:00:63:af:e6:c3:99:db:
         73:5d:c7:23:09:66:15:75:00:c6:b5:24:90:a3:da:33:cc:d6:
         71:84:50:c1:3c:d5:fa:c4:14:da:cd:25:3d:c1:04:78:d7:62:
         4a:03:27:04:b1:99:59:46:ca:d3:99:82:4e:6e:b5:d6:48:54:
         ad:a0:ee:2c
-----BEGIN CERTIFICATE-----
MIID7TCCAtWgAwIBAgIBAjANBgkqhkiG9w0BAQsFADCBgjELMAkGA1UEBhMCVVMx
EDAOBgNVBAgMB0dlb3JnaWExEDAOBgNVBAcMB0F0bGFudGExDzANBgNVBAoMBkdB
VGVjaDEPMA0GA1UECwwGTUFTVEVSMQswCQYDVQQDDAJDQTEgMB4GCSqGSIb3DQEJ
ARYRZ2F0ZWNoQGdhdGVjaC5lZHUwHhcNMTUxMTE1MjA0MjQ4WhcNMTYxMTE0MjA0
MjQ4WjB0MQswCQYDVQQGEwJVUzEQMA4GA1UECAwHR2VvcmdpYTEPMA0GA1UECgwG
R0FUZWNoMQ8wDQYDVQQLDAZNQVNURVIxDzANBgNVBAMMBkNsaWVudDEgMB4GCSqG
SIb3DQEJARYRZ2F0ZWNoQGdhdGVjaC5lZHUwggEiMA0GCSqGSIb3DQEBAQUAA4IB
DwAwggEKAoIBAQC4zb0/muC35xC//TfYG9PNFMikvk7sdwtAHrv4MBEhNB1YywEu
AXXJ1csjXWzzHwVe6DWXu76ce60+Ea8g+tZ3lJBBLnhOAFGNpIRd8G4FAH3G2ytI
kntv/l8bYioRmQaVKEPmkJS4DcFN3kOhJiAtvmXlWQuygEbOhgKaVN3e7pqvm5Pv
kbKQe9ulTpbRdyveGKemf3HvU7kJehjhWdlMNX+TRzVouXBKB0chBYToLLvoxZga
ER3FlCuHeyghhF5hxu1XyAlmJWDNVzfKb13Fj3xfiSeb6nvfZRbFK/vhEjEuQHt8
UeWVmsnR8BCrICrHuxtBlLMIPP2oBmU8Xe85AgMBAAGjezB5MAkGA1UdEwQCMAAw
LAYJYIZIAYb4QgENBB8WHU9wZW5TU0wgR2VuZXJhdGVkIENlcnRpZmljYXRlMB0G
A1UdDgQWBBR2kaRQmc0LJpv/SiDkEquAChOQmDAfBgNVHSMEGDAWgBQjuA6s3G5M
pbcl5Dusv08cb+3oRDANBgkqhkiG9w0BAQsFAAOCAQEAPRso0xF0vPaY/0CltQax
z8vskFRiu7Fw5ktoKzY7Z7gXvtvlkuWoWqpC9wT4Dp0xjhksed8kBcjUHKxixYiZ
VUOXrauHjEj85q3uPXM4uaA3AbHqPPKNeTSFdwRg95aZLIsJz6jWlqYJ3k0AhLcc
xMvBpWJqCuXjpNpwzpttN1hEQq7DT+Nn92db5LMDOMzIUDavdrvx6ibXoRnc3S++
iJHXC2Rk51wKS7MIeNpP+ktRRG1oiq8TWfgL8T1dEfUAY6/mw5nbc13HIwlmFXUA
xrUkkKPaM8zWcYRQwTzV+sQU2s0lPcEEeNdiSgMnBLGZWUbK05mCTm611khUraDu
LA==
-----END CERTIFICATE-----
-----BEGIN RSA PRIVATE KEY-----
MIIEpgIBAAKCAQEAuM29P5rgt+cQv/032BvTzRTIpL5O7HcLQB67+DARITQdWMsB
LgF1ydXLI11s8x8FXug1l7u+nHutPhGvIPrWd5SQQS54TgBRjaSEXfBuBQB9xtsr
SJJ7b/5fG2IqEZkGlShD5pCUuA3BTd5DoSYgLb5l5VkLsoBGzoYCmlTd3u6ar5uT
75GykHvbpU6W0Xcr3hinpn9x71O5CXoY4VnZTDV/k0c1aLlwSgdHIQWE6Cy76MWY
GhEdxZQrh3soIYReYcbtV8gJZiVgzVc3ym9dxY98X4knm+p732UWxSv74RIxLkB7
fFHllZrJ0fAQqyAqx7sbQZSzCDz9qAZlPF3vOQIDAQABAoIBAQCpnEJF/yqh/pNz
8b5wPNH+VkX0VanwAy4zMkIIfm0qUT9iACdcBwEJNowTMCrPVDhEq9CMK0a9LhGJ
dweJuE5gP9zJxhGqXUZ8PnMyGHmRY6sMeJjYKYDa/9ZgNo8vyYeuG9993FJyPkWc
5xKg83HzKd0xSrGeqXbTE1GOPbfIYxwEVOl2/qlgITy1W9GFBlY7WiS4TBD59h5+
gsfDak1Q5MkRrDO3g6od3OaEolRzTonDXCNuIoDXu3hZyN1y693Rl98KEEc5NwYJ
stG4AYo74mWjxQYfcyq88cA8iDoEO6SPC577iyAGzj5bHcb/k+85B9JpIau54ALZ
K4QkWuPRAoGBAN33TDjw0zBqjr3AuXcWuShzp3EMZzuKUQk1xr8O8PvFEE0eUxh3
ZCA0HpQA2WLFBGtRx9cOX7204vX1UeDBvJG7ZMJXF64poRHFYk1SX7HYkc80Bcxk
a5LmtyqQHNmT85/0nCN3VrzPiFGVKOnfifzqut6aBF9SU5AkuwlruE0FAoGBANUj
utxvqYLwz9GIHu2qaG9VsBr3GHDuzR4d5V4LCn3llnGI1j8RvedbmSbRH+JJ9dqt
6A6xWD+YLNx+do5HAjYRN5MTywymU50Wzoy2UGW089RxzLtdQBbY73HM+oGw8pcE
38WHNFZnVIyVk5r/e0TJagdjwnFyFErIR6eOnQ+lAoGBAJQPleSVoAo3yieBGzX5
DmGRZCvgniv1Q8DlAkIH8W/AL/OBOuSjH0LsAUmwl1FvIleEIc2uZObidlKi5Y8L
LIH5gmiwN7eRRUPZao0xWWwEjp6skQGaKre+9oeJwfTQ4D3eqRhvToh71u60lKoM
1rrCyQwbqLb874jDN5A9Lp8RAoGBAKIBVIk1Pq1OiUgEpS2VN2hYw1DbvHIqsTJR
GwSOc90Z425MyjyKKcRvNUvx7MA942fig96XIjLEYmT+ovKmOqIKGCntA4uL6UYg
DcOa2CVWk3dJQIqx6IL1RZtEaKynaN0tUUF88WUziWqKTvWjd3jjd3pCc4tzYMUu
0ngjyHIZAoGBAJerIADmIKE4lYBmm91tO/qc25qRYbT39bX2DotiekZOcDvMUTT+
I7G1Uwtp5bvs7w3JuFyKJgc03/ebA9subm6dhWvPIN1S9MtKPiUbVeh9j0FuYxc4
lYiNAZ5ZpVqBtoMoSidPlY1T23vMtz/dV0qFt+GXmYffREhjwNOw4EJm
-----END RSA PRIVATE KEY-----
