Certificate:
    Data:
        Version: 3 (0x2)
        Serial Number: 1 (0x1)
    Signature Algorithm: sha256WithRSAEncryption
        Issuer: C=US, ST=Georgia, L=Atlanta, O=GATech, OU=MASTER, CN=CA/emailAddress=gatech@gatech.edu
        Validity
            Not Before: Nov 15 20:42:47 2015 GMT
            Not After : Nov 14 20:42:47 2016 GMT
        Subject: C=US, ST=Georgia, O=GATech, OU=MASTER, CN=Server/emailAddress=gatech@gatech.edu
        Subject Public Key Info:
            Public Key Algorithm: rsaEncryption
                Public-Key: (2048 bit)
                Modulus:
                    00:d5:d0:fe:b0:8c:8a:83:03:2e:d9:35:c4:e5:e8:
                    67:59:68:42:0e:db:33:2e:c3:ee:c2:50:11:0c:3f:
                    fc:d1:1e:17:35:9d:84:68:23:d1:4a:b4:7c:fb:ab:
                    e5:22:43:24:31:d9:d0:a4:41:a3:dd:f8:80:be:d2:
                    db:da:17:9b:0a:3c:62:47:1c:e2:29:93:99:c4:6a:
                    ae:c4:71:4f:f8:01:21:65:58:ed:e2:02:6d:b6:2f:
                    3d:aa:0b:46:1c:a1:cc:71:5a:7a:03:50:ca:36:ed:
                    88:33:96:27:1c:1f:b6:63:f4:0a:0d:0e:53:bf:bc:
                    bb:59:61:bc:2e:f1:0b:e9:5c:bf:e7:85:c6:aa:3d:
                    56:39:63:d7:a7:63:4a:08:05:92:cb:04:bb:08:93:
                    67:46:f4:66:79:7f:19:fa:29:3c:16:40:08:cd:d7:
                    bc:fd:04:f7:66:c3:72:30:e9:23:fa:89:bb:c7:6c:
                    b3:a4:36:43:eb:a4:b2:95:34:b5:10:c0:5b:0f:5d:
                    e2:9f:09:cb:6d:73:55:e3:55:6e:49:86:7b:c8:be:
                    1d:03:90:42:f9:fa:30:39:2c:42:14:d3:83:dc:6a:
                    b1:93:a1:7f:6c:1b:d3:2d:f3:22:44:cf:ea:4a:71:
                    1c:97:ee:18:3f:0b:80:b2:a9:68:70:81:14:9d:31:
                    3a:43
                Exponent: 65537 (0x10001)
        X509v3 extensions:
            X509v3 Basic Constraints: 
                CA:FALSE
            Netscape Comment: 
                OpenSSL Generated Certificate
            X509v3 Subject Key Identifier: 
                B3:70:50:D6:A6:92:16:F8:07:59:D0:2C:6B:91:F6:C9:3E:70:ED:50
            X509v3 Authority Key Identifier: 
                keyid:23:B8:0E:AC:DC:6E:4C:A5:B7:25:E4:3B:AC:BF:4F:1C:6F:ED:E8:44

    Signature Algorithm: sha256WithRSAEncryption
         8d:ad:1d:50:9b:be:28:47:fa:ad:fc:f3:5b:e3:ac:01:ca:70:
         55:60:67:4e:bf:2c:61:61:bb:a4:cc:87:f4:0c:e6:97:10:08:
         84:d8:51:ba:51:14:70:69:b3:a9:64:d0:52:dc:fb:b5:40:cc:
         85:d8:b2:ad:a5:7d:98:46:b8:04:8c:34:cd:e1:5c:4a:3b:00:
         9c:f1:fb:95:b7:2e:80:43:3e:f6:25:d6:fe:ed:2c:11:07:8b:
         78:b6:35:c3:04:0f:a8:4b:93:42:f0:3b:5f:18:7b:86:78:ea:
         ed:bd:c5:8d:10:65:1d:89:64:0d:96:d4:20:51:61:a7:58:dc:
         a0:a5:cd:3f:57:ee:fa:1a:a9:87:d3:04:58:84:b2:20:dc:63:
         a0:fd:b5:15:ab:ae:96:25:87:1a:4b:21:62:e4:d4:d8:34:f2:
         cc:0b:22:25:aa:44:cf:49:11:a4:9a:40:58:83:76:75:10:2d:
         03:8c:14:b1:a2:4c:e1:fa:a7:da:3b:b5:cf:a8:1b:c7:c1:f3:
         9d:ed:64:a3:35:36:c1:ab:2a:01:11:3a:cb:44:00:6a:77:25:
         f2:7d:b7:08:89:6e:0b:63:a5:1f:41:64:a5:68:f3:fa:b6:b7:
         b9:6a:3e:46:04:05:96:4a:a0:0e:cf:08:2f:af:f1:10:69:02:
         60:86:28:16
-----BEGIN CERTIFICATE-----
MIID7TCCAtWgAwIBAgIBATANBgkqhkiG9w0BAQsFADCBgjELMAkGA1UEBhMCVVMx
EDAOBgNVBAgMB0dlb3JnaWExEDAOBgNVBAcMB0F0bGFudGExDzANBgNVBAoMBkdB
VGVjaDEPMA0GA1UECwwGTUFTVEVSMQswCQYDVQQDDAJDQTEgMB4GCSqGSIb3DQEJ
ARYRZ2F0ZWNoQGdhdGVjaC5lZHUwHhcNMTUxMTE1MjA0MjQ3WhcNMTYxMTE0MjA0
MjQ3WjB0MQswCQYDVQQGEwJVUzEQMA4GA1UECAwHR2VvcmdpYTEPMA0GA1UECgwG
R0FUZWNoMQ8wDQYDVQQLDAZNQVNURVIxDzANBgNVBAMMBlNlcnZlcjEgMB4GCSqG
SIb3DQEJARYRZ2F0ZWNoQGdhdGVjaC5lZHUwggEiMA0GCSqGSIb3DQEBAQUAA4IB
DwAwggEKAoIBAQDV0P6wjIqDAy7ZNcTl6GdZaEIO2zMuw+7CUBEMP/zRHhc1nYRo
I9FKtHz7q+UiQyQx2dCkQaPd+IC+0tvaF5sKPGJHHOIpk5nEaq7EcU/4ASFlWO3i
Am22Lz2qC0YcocxxWnoDUMo27YgzliccH7Zj9AoNDlO/vLtZYbwu8QvpXL/nhcaq
PVY5Y9enY0oIBZLLBLsIk2dG9GZ5fxn6KTwWQAjN17z9BPdmw3Iw6SP6ibvHbLOk
NkPrpLKVNLUQwFsPXeKfCcttc1XjVW5JhnvIvh0DkEL5+jA5LEIU04PcarGToX9s
G9Mt8yJEz+pKcRyX7hg/C4CyqWhwgRSdMTpDAgMBAAGjezB5MAkGA1UdEwQCMAAw
LAYJYIZIAYb4QgENBB8WHU9wZW5TU0wgR2VuZXJhdGVkIENlcnRpZmljYXRlMB0G
A1UdDgQWBBSzcFDWppIW+AdZ0CxrkfbJPnDtUDAfBgNVHSMEGDAWgBQjuA6s3G5M
pbcl5Dusv08cb+3oRDANBgkqhkiG9w0BAQsFAAOCAQEAja0dUJu+KEf6rfzzW+Os
AcpwVWBnTr8sYWG7pMyH9AzmlxAIhNhRulEUcGmzqWTQUtz7tUDMhdiyraV9mEa4
BIw0zeFcSjsAnPH7lbcugEM+9iXW/u0sEQeLeLY1wwQPqEuTQvA7Xxh7hnjq7b3F
jRBlHYlkDZbUIFFhp1jcoKXNP1fu+hqph9MEWISyINxjoP21FauuliWHGkshYuTU
2DTyzAsiJapEz0kRpJpAWIN2dRAtA4wUsaJM4fqn2ju1z6gbx8Hzne1kozU2wasq
ARE6y0QAancl8n23CIluC2OlH0FkpWjz+ra3uWo+RgQFlkqgDs8IL6/xEGkCYIYo
Fg==
-----END CERTIFICATE-----
-----BEGIN RSA PRIVATE KEY-----
MIIEogIBAAKCAQEA1dD+sIyKgwMu2TXE5ehnWWhCDtszLsPuwlARDD/80R4XNZ2E
aCPRSrR8+6vlIkMkMdnQpEGj3fiAvtLb2hebCjxiRxziKZOZxGquxHFP+AEhZVjt
4gJtti89qgtGHKHMcVp6A1DKNu2IM5YnHB+2Y/QKDQ5Tv7y7WWG8LvEL6Vy/54XG
qj1WOWPXp2NKCAWSywS7CJNnRvRmeX8Z+ik8FkAIzde8/QT3ZsNyMOkj+om7x2yz
pDZD66SylTS1EMBbD13inwnLbXNV41VuSYZ7yL4dA5BC+fowOSxCFNOD3Gqxk6F/
bBvTLfMiRM/qSnEcl+4YPwuAsqlocIEUnTE6QwIDAQABAoIBAD+WMcgLY73mmm4a
YX4GCYY7TTnh0mzb9AtxiEBeXy9JhZl6SMA3tqxC1NB7pF72HLN+lV/j7Xm7x334
c01+q6r1njyLyG6Y6KfTGjptgFy+6VGcitIl6r69edcyFx24uHYVdCe8RQbkyRae
Vu80NyeukbakRh/FXuoL+Mz0/pfdZEE+JlvSLdnZeaM6gpx8dGFJQRG1ZMuocWzE
jeDThhGIZRtkywVxUkltaQYHkm7SfVg2HlRLt6Yqz1yyVn5VVYVDQP6zJFp5PbdO
TWopKhW/uaMGQIiKFA1UePmj/JNlIWJxxt1RezNwiqIOC6ddSFrP7KU920x7cijY
/9Vc/UECgYEA7VDRhO2dtmZrB9WbfQm/38mQ77qm1o5+GasecCGQeU3hOc51QogZ
ctL3eDzqNGnuwzx6eofOD6HItNBQn+molkfS+cOP8Jd7cAXAXQtU5AJQGKH2D1sA
XEROxSxukGVqqLdR/Y418H2tyZ2JzAeiUISqVCFmED9FiMWxjqnehdECgYEA5qaK
IAhubNV59hXevIkEChf/JrX/0IQrNNu/zfL0CXYI0aCasMDjU0JJCpbcfWrDvVI8
j0wIopjmPiMFFpa3QUp2JyuLd9RlwY2rSD75ZftQQuuFS++/bBfZix5Jmes/i4Gc
l5qXCvK8sH33/tLcCncIt/ACRRnaQ30qJThSv9MCgYB/MOKqoQP3P5s7vrOwZ2pM
Eec5ZUuIESTqsvkEVijtqtz8s3fLadBh50o1SkioQOJ0B1UJmQHLBQXiSwf7PStb
KDGeJb9ezoGc/6gi9jDQZ6DwItYTUs21pfKl4PN9Nq3csSwjfnXQaDudpG63SJwp
FYGIx8HBEXg+Ht7UPJ0EEQKBgBMCHJYBO+B6Q1/Vc5LEE/IlAiEVlKyBh/IGPith
31y8PoPQIY95hgKBjvVxc2BeoR0EHvuMP5Xu1eK/DhdLenTGBzC5NPg+J9iorTn5
/qG58WZidIzKiFMHMCV37IbjzUvY9afE1LfRQ12kNADrLbkrECvger9pHwS61vNU
TfWDAoGAW4KXR8GmgMokhVs+lAjn1Kxt40ZUI9bRMeWpFuomNCoPxJ7cgDqXxWEs
xzF6PRUujEdzaWUd/uiJi/YNHqjfFki2TVyFUvucYS3yc1vGjCFYrRvU5LBivaRf
WAbumzsqqhmgBqVJDg8WjblK9yI5E8INewqiDgxM2Y2kNwAwY6g=
-----END RSA PRIVATE KEY-----
